(dp1
S'eac812e5199c0aaf3806e488d80adaaf0f7e0bcb'
p2
(S'S'
(iMailman.UserDesc
UserDesc
(dp3
S'fullname'
p4
V
sS'password'
p5
S'zibonein'
p6
sS'language'
p7
S'en'
p8
sS'digest'
p9
I0
sS'address'
p10
S'eee@sunrise.ch'
p11
sbtp12
sS'fd095f07005a5830548182a5a25bb50fdf98b0f7'
p13
(S'S'
(iMailman.UserDesc
UserDesc
(dp14
S'fullname'
p15
V
sS'password'
p16
S'nixuoxez'
p17
sS'language'
p18
S'en'
p19
sS'digest'
p20
I0
sS'address'
p21
S'Somelittlefish@icloud.com'
p22
sbtp23
sS'0bf208cb1fe316faaa9a9e886dd5b3f4379465de'
p24
(S'S'
(iMailman.UserDesc
UserDesc
p25
(dp26
S'fullname'
p27
V
sS'password'
p28
S'peopciic'
p29
sS'language'
p30
S'en'
p31
sS'digest'
p32
I0
sS'address'
p33
S'Somelittlefish@icloud.com'
p34
sbtp35
sS'31bb0976498eb6ed438c5f6db429042e4cc94d4c'
p36
(S'S'
(iMailman.UserDesc
UserDesc
(dp37
S'fullname'
p38
V
sS'password'
p39
S'boawuptu'
p40
sS'language'
p41
S'en'
p42
sS'digest'
p43
I0
sS'address'
p44
S'jamie_m_16@hotmail.com'
p45
sbtp46
sS'evictions'
p47
(dp48
g2
F1448479985.2348671
sg13
F1448510743.4604909
sg36
F1448581511.1935439
sg24
F1448681084.0214829
sS'05159926046ddf0e4e172c0a462bcbce202deded'
p49
F1448620835.102982
sS'eed1bfcd26db8939abb9dc106b10cb9a706fb1c7'
p50
F1448481330.791518
ssS'version'
p51
I2
sg49
(S'S'
(iMailman.UserDesc
UserDesc
(dp52
S'fullname'
p53
V
sS'password'
p54
S'ahdienav'
p55
sS'language'
p56
S'en'
p57
sS'digest'
p58
I0
sS'address'
p59
S'jamie_m_16@hotmail.com'
p60
sbtp61
sg50
(S'S'
(iMailman.UserDesc
UserDesc
(dp62
S'fullname'
p63
V
sS'password'
p64
S'ipzoemse'
p65
sS'language'
p66
S'en'
p67
sS'digest'
p68
I0
sS'address'
p69
S'eee@sunrise.ch'
p70
sbtp71
s.